target datalayout = "e-m:e-p270:32:32-p271:32:32-p272:64:64-i64:64-i128:128-f80:128-n8:16:32:64-S128"
target triple = "x86_64-pc-linux-gnu"

%struct.tag_PortMixer = type { ptr, i32, ptr, ptr, i32, ptr }

; Function Attrs: nounwind uwtable
define hidden void @PORT_Close(ptr noundef %0) #0 {
  %2 = alloca ptr, align 8
  %3 = alloca ptr, align 8
  store ptr %0, ptr %2, align 8
  %4 = load ptr, ptr %2, align 8
  %5 = icmp ne ptr %4, null
  br i1 %5, label %6, label %46

6:                                                ; preds = %1
  %7 = load ptr, ptr %2, align 8
  store ptr %7, ptr %3, align 8
  %8 = load ptr, ptr %3, align 8
  %9 = getelementptr inbounds %struct.tag_PortMixer, ptr %8, i32 0, i32 0
  %10 = load ptr, ptr %9, align 8
  %11 = icmp ne ptr %10, null
  br i1 %11, label %12, label %17

12:                                               ; preds = %6
  %13 = load ptr, ptr %3, align 8
  %14 = getelementptr inbounds %struct.tag_PortMixer, ptr %13, i32 0, i32 0
  %15 = load ptr, ptr %14, align 8
  %16 = call i32 @snd_mixer_close(ptr noundef %15)
  br label %17

17:                                               ; preds = %12, %6
  %18 = load ptr, ptr %3, align 8
  %19 = getelementptr inbounds %struct.tag_PortMixer, ptr %18, i32 0, i32 2
  %20 = load ptr, ptr %19, align 8
  %21 = icmp ne ptr %20, null
  br i1 %21, label %22, label %26

22:                                               ; preds = %17
  %23 = load ptr, ptr %3, align 8
  %24 = getelementptr inbounds %struct.tag_PortMixer, ptr %23, i32 0, i32 2
  %25 = load ptr, ptr %24, align 8
  call void @free(ptr noundef %25) #7
  br label %26

26:                                               ; preds = %22, %17
  %27 = load ptr, ptr %3, align 8
  %28 = getelementptr inbounds %struct.tag_PortMixer, ptr %27, i32 0, i32 3
  %29 = load ptr, ptr %28, align 8
  %30 = icmp ne ptr %29, null
  br i1 %30, label %31, label %35

31:                                               ; preds = %26
  %32 = load ptr, ptr %3, align 8
  %33 = getelementptr inbounds %struct.tag_PortMixer, ptr %32, i32 0, i32 3
  %34 = load ptr, ptr %33, align 8
  call void @free(ptr noundef %34) #7
  br label %35

35:                                               ; preds = %31, %26
  %36 = load ptr, ptr %3, align 8
  %37 = getelementptr inbounds %struct.tag_PortMixer, ptr %36, i32 0, i32 5
  %38 = load ptr, ptr %37, align 8
  %39 = icmp ne ptr %38, null
  br i1 %39, label %40, label %44

40:                                               ; preds = %35
  %41 = load ptr, ptr %3, align 8
  %42 = getelementptr inbounds %struct.tag_PortMixer, ptr %41, i32 0, i32 5
  %43 = load ptr, ptr %42, align 8
  call void @free(ptr noundef %43) #7
  br label %44

44:                                               ; preds = %40, %35
  %45 = load ptr, ptr %3, align 8
  call void @free(ptr noundef %45) #7
  br label %46

46:                                               ; preds = %44, %1
  ret void
}