; Function Attrs: nounwind uwtable
define hidden void @PORT_Close(ptr noundef %0) local_unnamed_addr #0 {
  %.not = icmp eq ptr %0, null
  br i1 %.not, label %19, label %2

2:                                                ; preds = %1
  %3 = load ptr, ptr %0, align 8
  %.not15 = icmp eq ptr %3, null
  br i1 %.not15, label %6, label %4

4:                                                ; preds = %2
  %5 = tail call i32 @snd_mixer_close(ptr noundef nonnull %3) #11
  br label %6

6:                                                ; preds = %4, %2
  %7 = getelementptr inbounds i8, ptr %0, i64 16
  %8 = load ptr, ptr %7, align 8
  %.not16 = icmp eq ptr %8, null
  br i1 %.not16, label %10, label %9

9:                                                ; preds = %6
  tail call void @free(ptr noundef nonnull %8) #11
  br label %10

10:                                               ; preds = %9, %6
  %11 = getelementptr inbounds i8, ptr %0, i64 24
  %12 = load ptr, ptr %11, align 8
  %.not17 = icmp eq ptr %12, null
  br i1 %.not17, label %14, label %13

13:                                               ; preds = %10
  tail call void @free(ptr noundef nonnull %12) #11
  br label %14

14:                                               ; preds = %13, %10
  %15 = getelementptr inbounds i8, ptr %0, i64 40
  %16 = load ptr, ptr %15, align 8
  %.not18 = icmp eq ptr %16, null
  br i1 %.not18, label %18, label %17

17:                                               ; preds = %14
  tail call void @free(ptr noundef nonnull %16) #11
  br label %18

18:                                               ; preds = %17, %14
  tail call void @free(ptr noundef nonnull %0) #11
  br label %19

19:                                               ; preds = %18, %1
  ret void
}